; Function Attrs: mustprogress uwtable
define void @udtitvfmt_formatToResult_77(ptr noundef %0, double noundef %1, double noundef %2, ptr noundef %3, ptr noundef %4) local_unnamed_addr #1 personality ptr @__gxx_personality_v0 {
  %6 = alloca %"class.icu_77::DateInterval", align 8
  %7 = alloca %"class.icu_77::FormattedDateInterval", align 8
  %8 = load i32, ptr %4, align 4, !tbaa !13
  %9 = icmp slt i32 %8, 1
  br i1 %9, label %10, label %22

10:                                               ; preds = %5
  %11 = icmp eq ptr %3, null
  br i1 %11, label %.sink.split.i.i, label %12

12:                                               ; preds = %10
  %13 = getelementptr inbounds nuw i8, ptr %3, i64 16
  %14 = load i32, ptr %13, align 4, !tbaa !17
  %.not9.i.i = icmp eq i32 %14, 1178880342
  br i1 %.not9.i.i, label %15, label %.sink.split.i.i

.sink.split.i.i:                                  ; preds = %12, %10
  %.sink.i.i = phi i32 [ 1, %10 ], [ 3, %12 ]
  store i32 %.sink.i.i, ptr %4, align 4, !tbaa !13
  call void @llvm.lifetime.start.p0(i64 24, ptr nonnull %6) #14
  call void @_ZN6icu_7712DateIntervalC1Edd(ptr noundef nonnull align 8 dereferenceable(24) %6, double noundef %1, double noundef %2)
  br label %21

15:                                               ; preds = %12
  call void @llvm.lifetime.start.p0(i64 24, ptr nonnull %6) #14
  call void @_ZN6icu_7712DateIntervalC1Edd(ptr noundef nonnull align 8 dereferenceable(24) %6, double noundef %1, double noundef %2)
  call void @llvm.lifetime.start.p0(i64 24, ptr nonnull %7) #14
  invoke void @_ZNK6icu_7718DateIntervalFormat13formatToValueERKNS_12DateIntervalER10UErrorCode(ptr dead_on_unwind nonnull writable sret(%"class.icu_77::FormattedDateInterval") align 8 %7, ptr noundef nonnull align 8 dereferenceable(1596) %0, ptr noundef nonnull align 8 dereferenceable(24) %6, ptr noundef nonnull align 4 dereferenceable(4) %4)
          to label %16 unwind label %19

16:                                               ; preds = %15
  %17 = getelementptr inbounds nuw i8, ptr %3, i64 24
  %18 = call noundef nonnull align 8 dereferenceable(20) ptr @_ZN6icu_7721FormattedDateIntervalaSEOS0_(ptr noundef nonnull align 8 dereferenceable(20) %17, ptr noundef nonnull align 8 dereferenceable(20) %7) #14
  call void @_ZN6icu_7721FormattedDateIntervalD1Ev(ptr noundef nonnull align 8 dereferenceable(20) %7) #14
  call void @llvm.lifetime.end.p0(i64 24, ptr nonnull %7) #14
  br label %21

19:                                               ; preds = %15
  %20 = landingpad { ptr, i32 }
          cleanup
  call void @llvm.lifetime.end.p0(i64 24, ptr nonnull %7) #14
  call void @_ZN6icu_7712DateIntervalD1Ev(ptr noundef nonnull align 8 dereferenceable(24) %6) #14
  call void @llvm.lifetime.end.p0(i64 24, ptr nonnull %6) #14
  resume { ptr, i32 } %20

21:                                               ; preds = %.sink.split.i.i, %16
  call void @_ZN6icu_7712DateIntervalD1Ev(ptr noundef nonnull align 8 dereferenceable(24) %6) #14
  call void @llvm.lifetime.end.p0(i64 24, ptr nonnull %6) #14
  br label %22

22:                                               ; preds = %5, %21
  ret void
}